target datalayout = "e-m:e-p270:32:32-p271:32:32-p272:64:64-i64:64-i128:128-f80:128-n8:16:32:64-S128"
target triple = "x86_64-pc-linux-gnu"

%class.ShenandoahTimingsTracker = type { ptr, i32, i32, double }

@_ZN24ShenandoahTimingsTracker14_current_phaseE = hidden global i32 316, align 4

; Function Attrs: mustprogress nounwind uwtable
define hidden void @_ZN24ShenandoahTimingsTrackerD2Ev(ptr noundef nonnull align 8 dereferenceable(24) %0) unnamed_addr #1 align 2 {
  %2 = alloca ptr, align 8
  store ptr %0, ptr %2, align 8
  %3 = load ptr, ptr %2, align 8
  %4 = getelementptr inbounds %class.ShenandoahTimingsTracker, ptr %3, i32 0, i32 0
  %5 = load ptr, ptr %4, align 8
  %6 = getelementptr inbounds %class.ShenandoahTimingsTracker, ptr %3, i32 0, i32 1
  %7 = load i32, ptr %6, align 8
  %8 = call noundef double @_ZN2os11elapsedTimeEv()
  %9 = getelementptr inbounds %class.ShenandoahTimingsTracker, ptr %3, i32 0, i32 3
  %10 = load double, ptr %9, align 8
  %11 = fsub double %8, %10
  call void @_ZN22ShenandoahPhaseTimings17record_phase_timeENS_5PhaseEd(ptr noundef nonnull align 8 dereferenceable(30352) %5, i32 noundef %7, double noundef %11)
  %12 = getelementptr inbounds %class.ShenandoahTimingsTracker, ptr %3, i32 0, i32 2
  %13 = load i32, ptr %12, align 4
  store i32 %13, ptr @_ZN24ShenandoahTimingsTracker14_current_phaseE, align 4
  ret void
}