; Function Attrs: mustprogress nounwind uwtable
define hidden void @_ZN24ShenandoahTimingsTrackerD2Ev(ptr nocapture noundef nonnull readonly align 8 dereferenceable(24) %0) unnamed_addr #0 align 2 {
  %2 = load ptr, ptr %0, align 8
  %3 = getelementptr inbounds i8, ptr %0, i64 8
  %4 = load i32, ptr %3, align 8
  %5 = tail call noundef double @_ZN2os11elapsedTimeEv() #12
  %6 = getelementptr inbounds i8, ptr %0, i64 16
  %7 = load double, ptr %6, align 8
  %8 = fsub double %5, %7
  tail call void @_ZN22ShenandoahPhaseTimings17record_phase_timeENS_5PhaseEd(ptr noundef nonnull align 8 dereferenceable(30352) %2, i32 noundef %4, double noundef %8) #12
  %9 = getelementptr inbounds i8, ptr %0, i64 12
  %10 = load i32, ptr %9, align 4
  store i32 %10, ptr @_ZN24ShenandoahTimingsTracker14_current_phaseE, align 4
  ret void
}